; ModuleID = '9/1303.c'
source_filename = "9/1303.c"
target datalayout = "e-m:e-p270:32:32-p271:32:32-p272:64:64-i64:64-f80:128-n8:16:32:64-S128"
target triple = "x86_64-pc-linux-gnu"

%struct.patient = type { [11 x i8], i32 }

@.str = private unnamed_addr constant [3 x i8] c"%d\00", align 1
@.str.1 = private unnamed_addr constant [3 x i8] c"%s\00", align 1
@sick = common dso_local global [101 x %struct.patient] zeroinitializer, align 16
@.str.2 = private unnamed_addr constant [4 x i8] c"%s\0A\00", align 1

; Function Attrs: noinline nounwind uwtable
define dso_local i32 @main() #0 {
  %1 = alloca i32, align 4
  %2 = alloca i32, align 4
  %3 = alloca i32, align 4
  %4 = alloca i32, align 4
  %5 = alloca i32, align 4
  %6 = alloca i32, align 4
  %7 = alloca i32, align 4
  %8 = alloca [101 x i32], align 16
  %9 = alloca [101 x i32], align 16
  store i32 0, i32* %1, align 4
  store i32 0, i32* %7, align 4
  store i32 0, i32* %6, align 4
  %10 = call i32 (i8*, ...) @__isoc99_scanf(i8* getelementptr inbounds ([3 x i8], [3 x i8]* @.str, i64 0, i64 0), i32* %2)
  store i32 0, i32* %3, align 4
  br label %11

11:                                               ; preds = %27, %0
  %12 = load i32, i32* %3, align 4
  %13 = load i32, i32* %2, align 4
  %14 = icmp slt i32 %12, %13
  br i1 %14, label %15, label %30

15:                                               ; preds = %11
  %16 = load i32, i32* %3, align 4
  %17 = sext i32 %16 to i64
  %18 = getelementptr inbounds [101 x %struct.patient], [101 x %struct.patient]* @sick, i64 0, i64 %17
  %19 = getelementptr inbounds %struct.patient, %struct.patient* %18, i32 0, i32 0
  %20 = getelementptr inbounds [11 x i8], [11 x i8]* %19, i64 0, i64 0
  %21 = call i32 (i8*, ...) @__isoc99_scanf(i8* getelementptr inbounds ([3 x i8], [3 x i8]* @.str.1, i64 0, i64 0), i8* %20)
  %22 = load i32, i32* %3, align 4
  %23 = sext i32 %22 to i64
  %24 = getelementptr inbounds [101 x %struct.patient], [101 x %struct.patient]* @sick, i64 0, i64 %23
  %25 = getelementptr inbounds %struct.patient, %struct.patient* %24, i32 0, i32 1
  %26 = call i32 (i8*, ...) @__isoc99_scanf(i8* getelementptr inbounds ([3 x i8], [3 x i8]* @.str, i64 0, i64 0), i32* %25)
  br label %27

27:                                               ; preds = %15
  %28 = load i32, i32* %3, align 4
  %29 = add nsw i32 %28, 1
  store i32 %29, i32* %3, align 4
  br label %11

30:                                               ; preds = %11
  %31 = bitcast [101 x i32]* %8 to i8*
  call void @llvm.memset.p0i8.i64(i8* align 16 %31, i8 0, i64 404, i1 false)
  %32 = bitcast [101 x i32]* %9 to i8*
  call void @llvm.memset.p0i8.i64(i8* align 16 %32, i8 0, i64 404, i1 false)
  store i32 0, i32* %3, align 4
  br label %33

33:                                               ; preds = %117, %30
  %34 = load i32, i32* %3, align 4
  %35 = load i32, i32* %2, align 4
  %36 = icmp slt i32 %34, %35
  br i1 %36, label %37, label %120

37:                                               ; preds = %33
  %38 = load i32, i32* %3, align 4
  %39 = sext i32 %38 to i64
  %40 = getelementptr inbounds [101 x %struct.patient], [101 x %struct.patient]* @sick, i64 0, i64 %39
  %41 = getelementptr inbounds %struct.patient, %struct.patient* %40, i32 0, i32 1
  %42 = load i32, i32* %41, align 4
  %43 = icmp sge i32 %42, 60
  br i1 %43, label %44, label %109

44:                                               ; preds = %37
  store i32 0, i32* %4, align 4
  br label %45

45:                                               ; preds = %105, %44
  %46 = load i32, i32* %4, align 4
  %47 = load i32, i32* %7, align 4
  %48 = icmp sle i32 %46, %47
  br i1 %48, label %49, label %108

49:                                               ; preds = %45
  %50 = load i32, i32* %3, align 4
  %51 = sext i32 %50 to i64
  %52 = getelementptr inbounds [101 x %struct.patient], [101 x %struct.patient]* @sick, i64 0, i64 %51
  %53 = getelementptr inbounds %struct.patient, %struct.patient* %52, i32 0, i32 1
  %54 = load i32, i32* %53, align 4
  %55 = load i32, i32* %4, align 4
  %56 = sext i32 %55 to i64
  %57 = getelementptr inbounds [101 x i32], [101 x i32]* %8, i64 0, i64 %56
  %58 = load i32, i32* %57, align 4
  %59 = sext i32 %58 to i64
  %60 = getelementptr inbounds [101 x %struct.patient], [101 x %struct.patient]* @sick, i64 0, i64 %59
  %61 = getelementptr inbounds %struct.patient, %struct.patient* %60, i32 0, i32 1
  %62 = load i32, i32* %61, align 4
  %63 = icmp sgt i32 %54, %62
  br i1 %63, label %68, label %64

64:                                               ; preds = %49
  %65 = load i32, i32* %4, align 4
  %66 = load i32, i32* %7, align 4
  %67 = icmp eq i32 %65, %66
  br i1 %67, label %68, label %104

68:                                               ; preds = %64, %49
  %69 = load i32, i32* %4, align 4
  %70 = load i32, i32* %7, align 4
  %71 = icmp eq i32 %69, %70
  br i1 %71, label %72, label %79

72:                                               ; preds = %68
  %73 = load i32, i32* %3, align 4
  %74 = load i32, i32* %7, align 4
  %75 = sext i32 %74 to i64
  %76 = getelementptr inbounds [101 x i32], [101 x i32]* %8, i64 0, i64 %75
  store i32 %73, i32* %76, align 4
  %77 = load i32, i32* %7, align 4
  %78 = add nsw i32 %77, 1
  store i32 %78, i32* %7, align 4
  br label %108

79:                                               ; preds = %68
  %80 = load i32, i32* %7, align 4
  store i32 %80, i32* %5, align 4
  br label %81

81:                                               ; preds = %94, %79
  %82 = load i32, i32* %5, align 4
  %83 = load i32, i32* %4, align 4
  %84 = icmp sge i32 %82, %83
  br i1 %84, label %85, label %97

85:                                               ; preds = %81
  %86 = load i32, i32* %5, align 4
  %87 = sext i32 %86 to i64
  %88 = getelementptr inbounds [101 x i32], [101 x i32]* %8, i64 0, i64 %87
  %89 = load i32, i32* %88, align 4
  %90 = load i32, i32* %5, align 4
  %91 = add nsw i32 %90, 1
  %92 = sext i32 %91 to i64
  %93 = getelementptr inbounds [101 x i32], [101 x i32]* %8, i64 0, i64 %92
  store i32 %89, i32* %93, align 4
  br label %94

94:                                               ; preds = %85
  %95 = load i32, i32* %5, align 4
  %96 = add nsw i32 %95, -1
  store i32 %96, i32* %5, align 4
  br label %81

97:                                               ; preds = %81
  %98 = load i32, i32* %3, align 4
  %99 = load i32, i32* %4, align 4
  %100 = sext i32 %99 to i64
  %101 = getelementptr inbounds [101 x i32], [101 x i32]* %8, i64 0, i64 %100
  store i32 %98, i32* %101, align 4
  %102 = load i32, i32* %7, align 4
  %103 = add nsw i32 %102, 1
  store i32 %103, i32* %7, align 4
  br label %108

104:                                              ; preds = %64
  br label %105

105:                                              ; preds = %104
  %106 = load i32, i32* %4, align 4
  %107 = add nsw i32 %106, 1
  store i32 %107, i32* %4, align 4
  br label %45

108:                                              ; preds = %97, %72, %45
  br label %116

109:                                              ; preds = %37
  %110 = load i32, i32* %3, align 4
  %111 = load i32, i32* %6, align 4
  %112 = sext i32 %111 to i64
  %113 = getelementptr inbounds [101 x i32], [101 x i32]* %9, i64 0, i64 %112
  store i32 %110, i32* %113, align 4
  %114 = load i32, i32* %6, align 4
  %115 = add nsw i32 %114, 1
  store i32 %115, i32* %6, align 4
  br label %116

116:                                              ; preds = %109, %108
  br label %117

117:                                              ; preds = %116
  %118 = load i32, i32* %3, align 4
  %119 = add nsw i32 %118, 1
  store i32 %119, i32* %3, align 4
  br label %33

120:                                              ; preds = %33
  store i32 0, i32* %3, align 4
  br label %121

121:                                              ; preds = %135, %120
  %122 = load i32, i32* %3, align 4
  %123 = load i32, i32* %7, align 4
  %124 = icmp slt i32 %122, %123
  br i1 %124, label %125, label %138

125:                                              ; preds = %121
  %126 = load i32, i32* %3, align 4
  %127 = sext i32 %126 to i64
  %128 = getelementptr inbounds [101 x i32], [101 x i32]* %8, i64 0, i64 %127
  %129 = load i32, i32* %128, align 4
  %130 = sext i32 %129 to i64
  %131 = getelementptr inbounds [101 x %struct.patient], [101 x %struct.patient]* @sick, i64 0, i64 %130
  %132 = getelementptr inbounds %struct.patient, %struct.patient* %131, i32 0, i32 0
  %133 = getelementptr inbounds [11 x i8], [11 x i8]* %132, i64 0, i64 0
  %134 = call i32 (i8*, ...) @printf(i8* getelementptr inbounds ([4 x i8], [4 x i8]* @.str.2, i64 0, i64 0), i8* %133)
  br label %135

135:                                              ; preds = %125
  %136 = load i32, i32* %3, align 4
  %137 = add nsw i32 %136, 1
  store i32 %137, i32* %3, align 4
  br label %121

138:                                              ; preds = %121
  store i32 0, i32* %3, align 4
  br label %139

139:                                              ; preds = %153, %138
  %140 = load i32, i32* %3, align 4
  %141 = load i32, i32* %6, align 4
  %142 = icmp slt i32 %140, %141
  br i1 %142, label %143, label %156

143:                                              ; preds = %139
  %144 = load i32, i32* %3, align 4
  %145 = sext i32 %144 to i64
  %146 = getelementptr inbounds [101 x i32], [101 x i32]* %9, i64 0, i64 %145
  %147 = load i32, i32* %146, align 4
  %148 = sext i32 %147 to i64
  %149 = getelementptr inbounds [101 x %struct.patient], [101 x %struct.patient]* @sick, i64 0, i64 %148
  %150 = getelementptr inbounds %struct.patient, %struct.patient* %149, i32 0, i32 0
  %151 = getelementptr inbounds [11 x i8], [11 x i8]* %150, i64 0, i64 0
  %152 = call i32 (i8*, ...) @printf(i8* getelementptr inbounds ([4 x i8], [4 x i8]* @.str.2, i64 0, i64 0), i8* %151)
  br label %153

153:                                              ; preds = %143
  %154 = load i32, i32* %3, align 4
  %155 = add nsw i32 %154, 1
  store i32 %155, i32* %3, align 4
  br label %139

156:                                              ; preds = %139
  ret i32 0
}

declare dso_local i32 @__isoc99_scanf(i8*, ...) #1

; Function Attrs: argmemonly nounwind willreturn
declare void @llvm.memset.p0i8.i64(i8* nocapture writeonly, i8, i64, i1 immarg) #2

declare dso_local i32 @printf(i8*, ...) #1


!llvm.module.flags = !{!0}
!llvm.ident = !{!1}

!0 = !{i32 1, !"wchar_size", i32 4}
!1 = !{!"clang version 10.0.0-4ubuntu1 "}
